target datalayout = "e-m:e-p270:32:32-p271:32:32-p272:64:64-i64:64-i128:128-f80:128-n8:16:32:64-S128"
target triple = "x86_64-pc-linux-gnu"

%class.btConvexTriangleMeshShape = type { %class.btPolyhedralConvexAabbCachingShape.base, ptr }
%class.btPolyhedralConvexAabbCachingShape.base = type <{ %class.btPolyhedralConvexShape, %class.btVector3, %class.btVector3, i8 }>
%class.btPolyhedralConvexShape = type { %class.btConvexInternalShape, ptr }
%class.btConvexInternalShape = type { %class.btConvexShape, %class.btVector3, %class.btVector3, float, float }
%class.btConvexShape = type { %class.btCollisionShape }
%class.btCollisionShape = type { ptr, i32, ptr, i32, i32 }
%class.btVector3 = type { [4 x float] }

; Function Attrs: mustprogress uwtable
define dso_local void @_ZN25btConvexTriangleMeshShapeC2EP23btStridingMeshInterfaceb(ptr noundef nonnull align 8 dereferenceable(128) %0, ptr noundef %1, i1 noundef zeroext %2) unnamed_addr #2 align 2 personality ptr @__gxx_personality_v0 {
  %4 = alloca ptr, align 8
  %5 = alloca ptr, align 8
  %6 = alloca i8, align 1
  %7 = alloca ptr, align 8
  %8 = alloca i32, align 4
  store ptr %0, ptr %4, align 8, !tbaa !12
  store ptr %1, ptr %5, align 8, !tbaa !14
  %9 = zext i1 %2 to i8
  store i8 %9, ptr %6, align 1, !tbaa !16
  %10 = load ptr, ptr %4, align 8
  call void @_ZN34btPolyhedralConvexAabbCachingShapeC2Ev(ptr noundef nonnull align 8 dereferenceable(113) %10)
  store ptr getelementptr inbounds inrange(-16, 256) ({ [34 x ptr] }, ptr @_ZTV25btConvexTriangleMeshShape, i32 0, i32 0, i32 2), ptr %10, align 8, !tbaa !18
  %11 = getelementptr inbounds nuw %class.btConvexTriangleMeshShape, ptr %10, i32 0, i32 1
  %12 = load ptr, ptr %5, align 8, !tbaa !14
  store ptr %12, ptr %11, align 8, !tbaa !20
  %13 = getelementptr inbounds nuw %class.btCollisionShape, ptr %10, i32 0, i32 1
  store i32 3, ptr %13, align 8, !tbaa !30
  %14 = load i8, ptr %6, align 1, !tbaa !16, !range !31, !noundef !32
  %15 = trunc i8 %14 to i1
  br i1 %15, label %16, label %22

16:                                               ; preds = %3
  invoke void @_ZN34btPolyhedralConvexAabbCachingShape15recalcLocalAabbEv(ptr noundef nonnull align 8 dereferenceable(113) %10)
          to label %17 unwind label %18

17:                                               ; preds = %16
  br label %22

18:                                               ; preds = %16
  %19 = landingpad { ptr, i32 }
          cleanup
  %20 = extractvalue { ptr, i32 } %19, 0
  store ptr %20, ptr %7, align 8
  %21 = extractvalue { ptr, i32 } %19, 1
  store i32 %21, ptr %8, align 4
  call void @_ZN23btPolyhedralConvexShapeD2Ev(ptr noundef nonnull align 8 dereferenceable(113) %10) #14
  br label %23

22:                                               ; preds = %17, %3
  ret void

23:                                               ; preds = %18
  %24 = load ptr, ptr %7, align 8
  %25 = load i32, ptr %8, align 4
  %26 = insertvalue { ptr, i32 } poison, ptr %24, 0
  %27 = insertvalue { ptr, i32 } %26, i32 %25, 1
  resume { ptr, i32 } %27
}