; Function Attrs: mustprogress uwtable
define dso_local void @_ZN25btConvexTriangleMeshShapeC2EP23btStridingMeshInterfaceb(ptr noundef nonnull align 8 dereferenceable(128) %0, ptr noundef %1, i1 noundef zeroext %2) unnamed_addr #0 align 2 personality ptr @__gxx_personality_v0 {
  tail call void @_ZN34btPolyhedralConvexAabbCachingShapeC2Ev(ptr noundef nonnull align 8 dereferenceable(113) %0)
  store ptr getelementptr inbounds nuw inrange(-16, 256) (i8, ptr @_ZTV25btConvexTriangleMeshShape, i64 16), ptr %0, align 8, !tbaa !4
  %4 = getelementptr inbounds nuw i8, ptr %0, i64 120
  store ptr %1, ptr %4, align 8, !tbaa !7
  %5 = getelementptr inbounds nuw i8, ptr %0, i64 8
  store i32 3, ptr %5, align 8, !tbaa !22
  br i1 %2, label %6, label %9

6:                                                ; preds = %3
  invoke void @_ZN34btPolyhedralConvexAabbCachingShape15recalcLocalAabbEv(ptr noundef nonnull align 8 dereferenceable(113) %0)
          to label %9 unwind label %7

7:                                                ; preds = %6
  %8 = landingpad { ptr, i32 }
          cleanup
  tail call void @_ZN23btPolyhedralConvexShapeD2Ev(ptr noundef nonnull align 8 dereferenceable(113) %0) #19
  resume { ptr, i32 } %8

9:                                                ; preds = %6, %3
  ret void
}